; Function Attrs: mustprogress uwtable
define void @_ZN32pxrInternal_v0_24__pxrReserved__18UsdPhysicsLimitAPI3GetERKNS_7UsdPrimERKNS_7TfTokenE(ptr dead_on_unwind noalias nonnull writable sret(%"class.pxrInternal_v0_24__pxrReserved__::UsdPhysicsLimitAPI") align 8 %0, ptr noundef nonnull align 8 dereferenceable(32) %1, ptr nocapture noundef nonnull readonly align 8 dereferenceable(8) %2) local_unnamed_addr #0 align 2 personality ptr @__gxx_personality_v0 {
  tail call void @_ZN32pxrInternal_v0_24__pxrReserved__13UsdSchemaBaseC2ERKNS_7UsdPrimE(ptr noundef nonnull align 8 dereferenceable(24) %0, ptr noundef nonnull align 8 dereferenceable(32) %1)
  store ptr getelementptr inbounds inrange(-16, 48) (i8, ptr @_ZTVN32pxrInternal_v0_24__pxrReserved__16UsdAPISchemaBaseE, i64 16), ptr %0, align 8
  %4 = getelementptr inbounds nuw i8, ptr %0, i64 24
  %5 = load i64, ptr %2, align 8
  store i64 %5, ptr %4, align 8
  %6 = and i64 %5, 7
  %.not.i.i.i.i = icmp eq i64 %6, 0
  br i1 %.not.i.i.i.i, label %_ZN32pxrInternal_v0_24__pxrReserved__18UsdPhysicsLimitAPIC2ERKNS_7UsdPrimERKNS_7TfTokenE.exit, label %7

7:                                                ; preds = %3
  %8 = and i64 %5, -8
  %9 = inttoptr i64 %8 to ptr
  %10 = atomicrmw add ptr %9, i32 2 monotonic, align 4
  %11 = and i32 %10, 1
  %.not1.i.i.i.i = icmp eq i32 %11, 0
  br i1 %.not1.i.i.i.i, label %12, label %_ZN32pxrInternal_v0_24__pxrReserved__18UsdPhysicsLimitAPIC2ERKNS_7UsdPrimERKNS_7TfTokenE.exit

12:                                               ; preds = %7
  %13 = load ptr, ptr %4, align 8
  %14 = ptrtoint ptr %13 to i64
  %15 = and i64 %14, -8
  %16 = inttoptr i64 %15 to ptr
  store ptr %16, ptr %4, align 8
  br label %_ZN32pxrInternal_v0_24__pxrReserved__18UsdPhysicsLimitAPIC2ERKNS_7UsdPrimERKNS_7TfTokenE.exit

_ZN32pxrInternal_v0_24__pxrReserved__18UsdPhysicsLimitAPIC2ERKNS_7UsdPrimERKNS_7TfTokenE.exit: ; preds = %3, %7, %12
  store ptr getelementptr inbounds inrange(-16, 48) (i8, ptr @_ZTVN32pxrInternal_v0_24__pxrReserved__18UsdPhysicsLimitAPIE, i64 16), ptr %0, align 8
  ret void
}